target datalayout = "e-m:e-p270:32:32-p271:32:32-p272:64:64-i64:64-i128:128-f80:128-n8:16:32:64-S128"
target triple = "x86_64-pc-linux-gnu"

%struct.ec_group_st = type { ptr, ptr, %struct.bignum_st, %struct.bignum_st, i32, ptr, %struct.bignum_st, %struct.bignum_st, %struct.bignum_st, i32, ptr, %struct.bignum_st }
%struct.bignum_st = type { ptr, i32, i32, i32, i32 }

; Function Attrs: nounwind uwtable
define hidden i32 @EC_GROUP_cmp(ptr noundef %0, ptr noundef %1, ptr noundef %2) #1 {
  %4 = alloca ptr, align 8
  %5 = alloca ptr, align 8
  %6 = alloca ptr, align 8
  store ptr %0, ptr %4, align 8, !tbaa !13
  store ptr %1, ptr %5, align 8, !tbaa !13
  store ptr %2, ptr %6, align 8, !tbaa !24
  %7 = load ptr, ptr %4, align 8, !tbaa !13
  %8 = getelementptr inbounds nuw %struct.ec_group_st, ptr %7, i32 0, i32 4
  %9 = load i32, ptr %8, align 8, !tbaa !30
  %10 = icmp eq i32 %9, 0
  br i1 %10, label %24, label %11

11:                                               ; preds = %3
  %12 = load ptr, ptr %5, align 8, !tbaa !13
  %13 = getelementptr inbounds nuw %struct.ec_group_st, ptr %12, i32 0, i32 4
  %14 = load i32, ptr %13, align 8, !tbaa !30
  %15 = icmp eq i32 %14, 0
  br i1 %15, label %24, label %16

16:                                               ; preds = %11
  %17 = load ptr, ptr %4, align 8, !tbaa !13
  %18 = getelementptr inbounds nuw %struct.ec_group_st, ptr %17, i32 0, i32 4
  %19 = load i32, ptr %18, align 8, !tbaa !30
  %20 = load ptr, ptr %5, align 8, !tbaa !13
  %21 = getelementptr inbounds nuw %struct.ec_group_st, ptr %20, i32 0, i32 4
  %22 = load i32, ptr %21, align 8, !tbaa !30
  %23 = icmp ne i32 %19, %22
  br label %24

24:                                               ; preds = %16, %11, %3
  %25 = phi i1 [ true, %11 ], [ true, %3 ], [ %23, %16 ]
  %26 = zext i1 %25 to i32
  ret i32 %26
}